target datalayout = "e-m:e-p270:32:32-p271:32:32-p272:64:64-i64:64-i128:128-f80:128-n8:16:32:64-S128"
target triple = "x86_64-pc-linux-gnu"

%class.ABstats = type { [8 x %"class.std::__cxx11::basic_string"], %struct.ABtracker, %struct.ABtracker, [2 x %struct.ABtracker], [8 x %struct.ABtracker] }
%"class.std::__cxx11::basic_string" = type { %"struct.std::__cxx11::basic_string<char>::_Alloc_hider", i64, %union.anon }
%"struct.std::__cxx11::basic_string<char>::_Alloc_hider" = type { ptr }
%union.anon = type { i64, [8 x i8] }
%struct.ABtracker = type { [49 x i32], i32, i32, i32, i32 }

; Function Attrs: mustprogress nounwind uwtable
define void @_ZN7ABstatsD2Ev(ptr noundef nonnull align 8 dereferenceable(2800) %0) unnamed_addr #5 align 2 {
  %2 = alloca ptr, align 8
  store ptr %0, ptr %2, align 8
  %3 = load ptr, ptr %2, align 8
  %4 = getelementptr inbounds nuw %class.ABstats, ptr %3, i32 0, i32 0
  %5 = getelementptr inbounds [8 x %"class.std::__cxx11::basic_string"], ptr %4, i32 0, i32 0
  %6 = getelementptr inbounds %"class.std::__cxx11::basic_string", ptr %5, i64 8
  br label %7

7:                                                ; preds = %7, %1
  %8 = phi ptr [ %6, %1 ], [ %9, %7 ]
  %9 = getelementptr inbounds %"class.std::__cxx11::basic_string", ptr %8, i64 -1
  call void @_ZNSt7__cxx1112basic_stringIcSt11char_traitsIcESaIcEED1Ev(ptr noundef nonnull align 8 dereferenceable(32) %9) #3
  %10 = icmp eq ptr %9, %5
  br i1 %10, label %11, label %7

11:                                               ; preds = %7
  ret void
}