; Function Attrs: mustprogress nounwind uwtable
define void @_ZN7ABstatsD2Ev(ptr noundef nonnull align 8 dereferenceable(2800) %0) unnamed_addr #5 align 2 {
  %2 = getelementptr inbounds i8, ptr %0, i64 256
  br label %3

3:                                                ; preds = %3, %1
  %4 = phi ptr [ %2, %1 ], [ %5, %3 ]
  %5 = getelementptr inbounds i8, ptr %4, i64 -32
  tail call void @_ZNSt7__cxx1112basic_stringIcSt11char_traitsIcESaIcEED1Ev(ptr noundef nonnull align 8 dereferenceable(32) %5) #13
  %6 = icmp eq ptr %5, %0
  br i1 %6, label %7, label %3

7:                                                ; preds = %3
  ret void
}